target datalayout = "e-m:e-p270:32:32-p271:32:32-p272:64:64-i64:64-i128:128-f80:128-n8:16:32:64-S128"
target triple = "x86_64-pc-linux-gnu"

%struct._xmlNode = type { ptr, i32, ptr, ptr, ptr, ptr, ptr, ptr, ptr, ptr, ptr, ptr, ptr, ptr, i16, i16 }

; Function Attrs: nounwind uwtable
define internal ptr @php_dom_free_xinclude_node(ptr noundef %0) #0 {
  %2 = alloca ptr, align 8
  %3 = alloca ptr, align 8
  store ptr %0, ptr %2, align 8
  %4 = load ptr, ptr %2, align 8
  store ptr %4, ptr %3, align 8
  %5 = load ptr, ptr %2, align 8
  %6 = getelementptr inbounds %struct._xmlNode, ptr %5, i32 0, i32 6
  %7 = load ptr, ptr %6, align 8
  store ptr %7, ptr %2, align 8
  %8 = load ptr, ptr %3, align 8
  call void @xmlUnlinkNode(ptr noundef %8)
  %9 = load ptr, ptr %3, align 8
  call void @php_libxml_node_free_resource(ptr noundef %9)
  %10 = load ptr, ptr %2, align 8
  ret ptr %10
}

; Function Attrs: nounwind uwtable
define internal void @php_dom_remove_xinclude_nodes(ptr noundef %0) #0 {
  %2 = alloca ptr, align 8
  store ptr %0, ptr %2, align 8
  br label %3

3:                                                ; preds = %62, %1
  %4 = load ptr, ptr %2, align 8
  %5 = icmp ne ptr %4, null
  br i1 %5, label %6, label %63

6:                                                ; preds = %3
  %7 = load ptr, ptr %2, align 8
  %8 = getelementptr inbounds %struct._xmlNode, ptr %7, i32 0, i32 1
  %9 = load i32, ptr %8, align 8
  %10 = icmp eq i32 %9, 19
  br i1 %10, label %11, label %49

11:                                               ; preds = %6
  %12 = load ptr, ptr %2, align 8
  %13 = call ptr @php_dom_free_xinclude_node(ptr noundef %12)
  store ptr %13, ptr %2, align 8
  br label %14

14:                                               ; preds = %33, %11
  %15 = load ptr, ptr %2, align 8
  %16 = icmp ne ptr %15, null
  br i1 %16, label %17, label %22

17:                                               ; preds = %14
  %18 = load ptr, ptr %2, align 8
  %19 = getelementptr inbounds %struct._xmlNode, ptr %18, i32 0, i32 1
  %20 = load i32, ptr %19, align 8
  %21 = icmp ne i32 %20, 20
  br label %22

22:                                               ; preds = %17, %14
  %23 = phi i1 [ false, %14 ], [ %21, %17 ]
  br i1 %23, label %24, label %37

24:                                               ; preds = %22
  %25 = load ptr, ptr %2, align 8
  %26 = getelementptr inbounds %struct._xmlNode, ptr %25, i32 0, i32 1
  %27 = load i32, ptr %26, align 8
  %28 = icmp eq i32 %27, 1
  br i1 %28, label %29, label %33

29:                                               ; preds = %24
  %30 = load ptr, ptr %2, align 8
  %31 = getelementptr inbounds %struct._xmlNode, ptr %30, i32 0, i32 3
  %32 = load ptr, ptr %31, align 8
  call void @php_dom_remove_xinclude_nodes(ptr noundef %32)
  br label %33

33:                                               ; preds = %29, %24
  %34 = load ptr, ptr %2, align 8
  %35 = getelementptr inbounds %struct._xmlNode, ptr %34, i32 0, i32 6
  %36 = load ptr, ptr %35, align 8
  store ptr %36, ptr %2, align 8
  br label %14

37:                                               ; preds = %22
  %38 = load ptr, ptr %2, align 8
  %39 = icmp ne ptr %38, null
  br i1 %39, label %40, label %48

40:                                               ; preds = %37
  %41 = load ptr, ptr %2, align 8
  %42 = getelementptr inbounds %struct._xmlNode, ptr %41, i32 0, i32 1
  %43 = load i32, ptr %42, align 8
  %44 = icmp eq i32 %43, 20
  br i1 %44, label %45, label %48

45:                                               ; preds = %40
  %46 = load ptr, ptr %2, align 8
  %47 = call ptr @php_dom_free_xinclude_node(ptr noundef %46)
  store ptr %47, ptr %2, align 8
  br label %48

48:                                               ; preds = %45, %40, %37
  br label %62

49:                                               ; preds = %6
  %50 = load ptr, ptr %2, align 8
  %51 = getelementptr inbounds %struct._xmlNode, ptr %50, i32 0, i32 1
  %52 = load i32, ptr %51, align 8
  %53 = icmp eq i32 %52, 1
  br i1 %53, label %54, label %58

54:                                               ; preds = %49
  %55 = load ptr, ptr %2, align 8
  %56 = getelementptr inbounds %struct._xmlNode, ptr %55, i32 0, i32 3
  %57 = load ptr, ptr %56, align 8
  call void @php_dom_remove_xinclude_nodes(ptr noundef %57)
  br label %58

58:                                               ; preds = %54, %49
  %59 = load ptr, ptr %2, align 8
  %60 = getelementptr inbounds %struct._xmlNode, ptr %59, i32 0, i32 6
  %61 = load ptr, ptr %60, align 8
  store ptr %61, ptr %2, align 8
  br label %62

62:                                               ; preds = %58, %48
  br label %3

63:                                               ; preds = %3
  ret void
}