; Function Attrs: nounwind uwtable
define internal fastcc void @php_dom_remove_xinclude_nodes(ptr noundef %0) unnamed_addr #0 {
  %.not22 = icmp eq ptr %0, null
  br i1 %.not22, label %._crit_edge, label %.lr.ph24

.lr.ph24:                                         ; preds = %1, %.critedge18
  %.023 = phi ptr [ %.2, %.critedge18 ], [ %0, %1 ]
  %2 = getelementptr inbounds i8, ptr %.023, i64 8
  %3 = load i32, ptr %2, align 8
  switch i32 %3, label %20 [
    i32 19, label %4
    i32 1, label %17
  ]

4:                                                ; preds = %.lr.ph24
  %5 = getelementptr inbounds i8, ptr %.023, i64 48
  %6 = load ptr, ptr %5, align 8
  tail call void @xmlUnlinkNode(ptr noundef nonnull %.023) #10
  tail call void @php_libxml_node_free_resource(ptr noundef nonnull %.023) #10
  %.not1620 = icmp eq ptr %6, null
  br i1 %.not1620, label %._crit_edge, label %.lr.ph

.lr.ph:                                           ; preds = %4, %12
  %.121 = phi ptr [ %14, %12 ], [ %6, %4 ]
  %7 = getelementptr inbounds i8, ptr %.121, i64 8
  %8 = load i32, ptr %7, align 8
  switch i32 %8, label %12 [
    i32 20, label %.critedge
    i32 1, label %9
  ]

9:                                                ; preds = %.lr.ph
  %10 = getelementptr inbounds i8, ptr %.121, i64 24
  %11 = load ptr, ptr %10, align 8
  tail call fastcc void @php_dom_remove_xinclude_nodes(ptr noundef %11)
  br label %12

12:                                               ; preds = %.lr.ph, %9
  %13 = getelementptr inbounds i8, ptr %.121, i64 48
  %14 = load ptr, ptr %13, align 8
  %.not16 = icmp eq ptr %14, null
  br i1 %.not16, label %._crit_edge, label %.lr.ph

.critedge:                                        ; preds = %.lr.ph
  %15 = getelementptr inbounds i8, ptr %.121, i64 48
  %16 = load ptr, ptr %15, align 8
  tail call void @xmlUnlinkNode(ptr noundef nonnull %.121) #10
  tail call void @php_libxml_node_free_resource(ptr noundef nonnull %.121) #10
  br label %.critedge18

17:                                               ; preds = %.lr.ph24
  %18 = getelementptr inbounds i8, ptr %.023, i64 24
  %19 = load ptr, ptr %18, align 8
  tail call fastcc void @php_dom_remove_xinclude_nodes(ptr noundef %19)
  br label %20

20:                                               ; preds = %.lr.ph24, %17
  %21 = getelementptr inbounds i8, ptr %.023, i64 48
  %22 = load ptr, ptr %21, align 8
  br label %.critedge18

.critedge18:                                      ; preds = %.critedge, %20
  %.2 = phi ptr [ %16, %.critedge ], [ %22, %20 ]
  %.not = icmp eq ptr %.2, null
  br i1 %.not, label %._crit_edge, label %.lr.ph24

._crit_edge:                                      ; preds = %4, %.critedge18, %12, %1
  ret void
}